target datalayout = "e-m:e-p270:32:32-p271:32:32-p272:64:64-i64:64-i128:128-f80:128-n8:16:32:64-S128"
target triple = "x86_64-pc-linux-gnu"

%"struct.Luau::CodeGen::X64::OperandX64" = type { i8, %"struct.Luau::CodeGen::X64::RegisterX64", %"struct.Luau::CodeGen::X64::RegisterX64", i8, i32 }
%"struct.Luau::CodeGen::X64::RegisterX64" = type { i8 }

@_ZN4Luau7CodeGen3X64L5qwordE = internal constant %"struct.Luau::CodeGen::X64::OperandX64" { i8 1, %"struct.Luau::CodeGen::X64::RegisterX64" { i8 -128 }, %"struct.Luau::CodeGen::X64::RegisterX64" { i8 -128 }, i8 20, i32 0 }, align 4
@_ZN4Luau7CodeGen3X64L14rNativeContextE = internal constant %"struct.Luau::CodeGen::X64::RegisterX64" { i8 108 }, align 1
@_ZN4Luau7CodeGen3X64L3eaxE = internal constant %"struct.Luau::CodeGen::X64::RegisterX64" { i8 3 }, align 1
@_ZN4Luau7CodeGen3X64L5noregE = internal constant %"struct.Luau::CodeGen::X64::RegisterX64" { i8 -128 }, align 1

; Function Attrs: mustprogress nounwind uwtable
define linkonce_odr dso_local void @_ZN4Luau7CodeGen3X6410OperandX64C2ENS1_7SizeX64ENS1_11RegisterX64EhS4_i(ptr noundef nonnull align 4 dereferenceable(8) %0, i8 noundef zeroext %1, i8 %2, i8 noundef zeroext %3, i8 %4, i32 noundef %5) unnamed_addr #4 comdat align 2 {
  %7 = alloca %"struct.Luau::CodeGen::X64::RegisterX64", align 1
  %8 = alloca %"struct.Luau::CodeGen::X64::RegisterX64", align 1
  %9 = alloca ptr, align 8
  %10 = alloca i8, align 1
  %11 = alloca i8, align 1
  %12 = alloca i32, align 4
  %13 = getelementptr inbounds nuw %"struct.Luau::CodeGen::X64::RegisterX64", ptr %7, i32 0, i32 0
  store i8 %2, ptr %13, align 1
  %14 = getelementptr inbounds nuw %"struct.Luau::CodeGen::X64::RegisterX64", ptr %8, i32 0, i32 0
  store i8 %4, ptr %14, align 1
  store ptr %0, ptr %9, align 8, !tbaa !24
  store i8 %1, ptr %10, align 1, !tbaa !73
  store i8 %3, ptr %11, align 1, !tbaa !21
  store i32 %5, ptr %12, align 4, !tbaa !22
  %15 = load ptr, ptr %9, align 8
  %16 = getelementptr inbounds nuw %"struct.Luau::CodeGen::X64::OperandX64", ptr %15, i32 0, i32 0
  store i8 1, ptr %16, align 4, !tbaa !13
  %17 = getelementptr inbounds nuw %"struct.Luau::CodeGen::X64::OperandX64", ptr %15, i32 0, i32 1
  call void @llvm.memcpy.p0.p0.i64(ptr align 1 %17, ptr align 1 %7, i64 1, i1 false), !tbaa.struct !23
  %18 = getelementptr inbounds nuw %"struct.Luau::CodeGen::X64::OperandX64", ptr %15, i32 0, i32 2
  call void @llvm.memcpy.p0.p0.i64(ptr align 2 %18, ptr align 1 %8, i64 1, i1 false), !tbaa.struct !23
  %19 = getelementptr inbounds nuw %"struct.Luau::CodeGen::X64::OperandX64", ptr %15, i32 0, i32 3
  %20 = load i8, ptr %10, align 1, !tbaa !73
  %21 = load i8, ptr %19, align 1
  %22 = and i8 %20, 15
  %23 = and i8 %21, -16
  %24 = or i8 %23, %22
  store i8 %24, ptr %19, align 1
  %25 = getelementptr inbounds nuw %"struct.Luau::CodeGen::X64::OperandX64", ptr %15, i32 0, i32 3
  %26 = load i8, ptr %11, align 1, !tbaa !21
  %27 = load i8, ptr %25, align 1
  %28 = and i8 %26, 15
  %29 = shl i8 %28, 4
  %30 = and i8 %27, 15
  %31 = or i8 %30, %29
  store i8 %31, ptr %25, align 1
  %32 = getelementptr inbounds nuw %"struct.Luau::CodeGen::X64::OperandX64", ptr %15, i32 0, i32 4
  %33 = load i32, ptr %12, align 4, !tbaa !22
  store i32 %33, ptr %32, align 4, !tbaa !26
  ret void
}

; Function Attrs: mustprogress nounwind uwtable
define linkonce_odr dso_local i64 @_ZNK4Luau7CodeGen3X6410OperandX64ixEOS2_(ptr noundef nonnull align 4 dereferenceable(8) %0, ptr noundef nonnull align 4 dereferenceable(8) %1) #4 comdat align 2 {
  %3 = alloca %"struct.Luau::CodeGen::X64::OperandX64", align 4
  %4 = alloca ptr, align 8
  %5 = alloca ptr, align 8
  store ptr %0, ptr %4, align 8, !tbaa !24
  store ptr %1, ptr %5, align 8, !tbaa !24
  %6 = load ptr, ptr %4, align 8
  %7 = load ptr, ptr %5, align 8, !tbaa !24
  %8 = getelementptr inbounds nuw %"struct.Luau::CodeGen::X64::OperandX64", ptr %7, i32 0, i32 0
  store i8 1, ptr %8, align 4, !tbaa !13
  %9 = getelementptr inbounds nuw %"struct.Luau::CodeGen::X64::OperandX64", ptr %6, i32 0, i32 3
  %10 = load i8, ptr %9, align 1
  %11 = and i8 %10, 15
  %12 = load ptr, ptr %5, align 8, !tbaa !24
  %13 = getelementptr inbounds nuw %"struct.Luau::CodeGen::X64::OperandX64", ptr %12, i32 0, i32 3
  %14 = load i8, ptr %13, align 1
  %15 = and i8 %11, 15
  %16 = and i8 %14, -16
  %17 = or i8 %16, %15
  store i8 %17, ptr %13, align 1
  %18 = load ptr, ptr %5, align 8, !tbaa !24
  call void @llvm.memcpy.p0.p0.i64(ptr align 4 %3, ptr align 4 %18, i64 8, i1 false), !tbaa.struct !19
  %19 = load i64, ptr %3, align 4
  ret i64 %19
}

; Function Attrs: mustprogress uwtable
define linkonce_odr dso_local i64 @_ZN4Luau7CodeGen3X64plENS1_11RegisterX64Ei(i8 %0, i32 noundef %1) #0 comdat {
  %3 = alloca %"struct.Luau::CodeGen::X64::OperandX64", align 4
  %4 = alloca %"struct.Luau::CodeGen::X64::RegisterX64", align 1
  %5 = alloca i32, align 4
  %6 = alloca %"struct.Luau::CodeGen::X64::RegisterX64", align 1
  %7 = alloca %"struct.Luau::CodeGen::X64::RegisterX64", align 1
  %8 = getelementptr inbounds nuw %"struct.Luau::CodeGen::X64::RegisterX64", ptr %4, i32 0, i32 0
  store i8 %0, ptr %8, align 1
  store i32 %1, ptr %5, align 4, !tbaa !22
  call void @llvm.memcpy.p0.p0.i64(ptr align 1 %6, ptr align 1 @_ZN4Luau7CodeGen3X64L5noregE, i64 1, i1 false), !tbaa.struct !23
  call void @llvm.memcpy.p0.p0.i64(ptr align 1 %7, ptr align 1 %4, i64 1, i1 false), !tbaa.struct !23
  %9 = load i32, ptr %5, align 4, !tbaa !22
  %10 = getelementptr inbounds nuw %"struct.Luau::CodeGen::X64::RegisterX64", ptr %6, i32 0, i32 0
  %11 = load i8, ptr %10, align 1
  %12 = getelementptr inbounds nuw %"struct.Luau::CodeGen::X64::RegisterX64", ptr %7, i32 0, i32 0
  %13 = load i8, ptr %12, align 1
  call void @_ZN4Luau7CodeGen3X6410OperandX64C2ENS1_7SizeX64ENS1_11RegisterX64EhS4_i(ptr noundef nonnull align 4 dereferenceable(8) %3, i8 noundef zeroext 0, i8 %11, i8 noundef zeroext 1, i8 %13, i32 noundef %9)
  %14 = load i64, ptr %3, align 4
  ret i64 %14
}

; Function Attrs: mustprogress nounwind uwtable
define linkonce_odr dso_local void @_ZN4Luau7CodeGen3X6410OperandX64C2Ei(ptr noundef nonnull align 4 dereferenceable(8) %0, i32 noundef %1) unnamed_addr #4 comdat align 2 {
  %3 = alloca ptr, align 8
  %4 = alloca i32, align 4
  store ptr %0, ptr %3, align 8, !tbaa !24
  store i32 %1, ptr %4, align 4, !tbaa !22
  %5 = load ptr, ptr %3, align 8
  %6 = getelementptr inbounds nuw %"struct.Luau::CodeGen::X64::OperandX64", ptr %5, i32 0, i32 0
  store i8 2, ptr %6, align 4, !tbaa !13
  %7 = getelementptr inbounds nuw %"struct.Luau::CodeGen::X64::OperandX64", ptr %5, i32 0, i32 1
  call void @llvm.memcpy.p0.p0.i64(ptr align 1 %7, ptr align 1 @_ZN4Luau7CodeGen3X64L5noregE, i64 1, i1 false), !tbaa.struct !23
  %8 = getelementptr inbounds nuw %"struct.Luau::CodeGen::X64::OperandX64", ptr %5, i32 0, i32 2
  call void @llvm.memcpy.p0.p0.i64(ptr align 2 %8, ptr align 1 @_ZN4Luau7CodeGen3X64L5noregE, i64 1, i1 false), !tbaa.struct !23
  %9 = getelementptr inbounds nuw %"struct.Luau::CodeGen::X64::OperandX64", ptr %5, i32 0, i32 3
  %10 = load i8, ptr %9, align 1
  %11 = and i8 %10, -16
  %12 = or i8 %11, 0
  store i8 %12, ptr %9, align 1
  %13 = getelementptr inbounds nuw %"struct.Luau::CodeGen::X64::OperandX64", ptr %5, i32 0, i32 3
  %14 = load i8, ptr %13, align 1
  %15 = and i8 %14, 15
  %16 = or i8 %15, 16
  store i8 %16, ptr %13, align 1
  %17 = getelementptr inbounds nuw %"struct.Luau::CodeGen::X64::OperandX64", ptr %5, i32 0, i32 4
  %18 = load i32, ptr %4, align 4, !tbaa !22
  store i32 %18, ptr %17, align 4, !tbaa !26
  ret void
}

; Function Attrs: mustprogress nounwind uwtable
define linkonce_odr dso_local void @_ZN4Luau7CodeGen3X6410OperandX64C2ENS1_11RegisterX64E(ptr noundef nonnull align 4 dereferenceable(8) %0, i8 %1) unnamed_addr #4 comdat align 2 {
  %3 = alloca %"struct.Luau::CodeGen::X64::RegisterX64", align 1
  %4 = alloca ptr, align 8
  %5 = getelementptr inbounds nuw %"struct.Luau::CodeGen::X64::RegisterX64", ptr %3, i32 0, i32 0
  store i8 %1, ptr %5, align 1
  store ptr %0, ptr %4, align 8, !tbaa !24
  %6 = load ptr, ptr %4, align 8
  %7 = getelementptr inbounds nuw %"struct.Luau::CodeGen::X64::OperandX64", ptr %6, i32 0, i32 0
  store i8 0, ptr %7, align 4, !tbaa !13
  %8 = getelementptr inbounds nuw %"struct.Luau::CodeGen::X64::OperandX64", ptr %6, i32 0, i32 1
  call void @llvm.memcpy.p0.p0.i64(ptr align 1 %8, ptr align 1 @_ZN4Luau7CodeGen3X64L5noregE, i64 1, i1 false), !tbaa.struct !23
  %9 = getelementptr inbounds nuw %"struct.Luau::CodeGen::X64::OperandX64", ptr %6, i32 0, i32 2
  call void @llvm.memcpy.p0.p0.i64(ptr align 2 %9, ptr align 1 %3, i64 1, i1 false), !tbaa.struct !23
  %10 = getelementptr inbounds nuw %"struct.Luau::CodeGen::X64::OperandX64", ptr %6, i32 0, i32 3
  %11 = load i8, ptr %10, align 1
  %12 = and i8 %11, -16
  %13 = or i8 %12, 0
  store i8 %13, ptr %10, align 1
  %14 = getelementptr inbounds nuw %"struct.Luau::CodeGen::X64::OperandX64", ptr %6, i32 0, i32 3
  %15 = load i8, ptr %14, align 1
  %16 = and i8 %15, 15
  %17 = or i8 %16, 16
  store i8 %17, ptr %14, align 1
  %18 = getelementptr inbounds nuw %"struct.Luau::CodeGen::X64::OperandX64", ptr %6, i32 0, i32 4
  store i32 0, ptr %18, align 4, !tbaa !26
  ret void
}

; Function Attrs: mustprogress uwtable
define dso_local void @_ZN4Luau7CodeGen3X648emitExitERNS1_18AssemblyBuilderX64Eb(ptr noundef nonnull align 8 dereferenceable(252) %0, i1 noundef zeroext %1) #0 {
  %3 = alloca ptr, align 8
  %4 = alloca i8, align 1
  %5 = alloca %"struct.Luau::CodeGen::X64::OperandX64", align 4
  %6 = alloca %"struct.Luau::CodeGen::X64::RegisterX64", align 1
  %7 = alloca %"struct.Luau::CodeGen::X64::OperandX64", align 4
  %8 = alloca %"struct.Luau::CodeGen::X64::OperandX64", align 4
  %9 = alloca %"struct.Luau::CodeGen::X64::RegisterX64", align 1
  %10 = alloca %"struct.Luau::CodeGen::X64::OperandX64", align 4
  %11 = alloca %"struct.Luau::CodeGen::X64::RegisterX64", align 1
  %12 = alloca %"struct.Luau::CodeGen::X64::OperandX64", align 4
  %13 = alloca %"struct.Luau::CodeGen::X64::OperandX64", align 4
  %14 = alloca %"struct.Luau::CodeGen::X64::RegisterX64", align 1
  store ptr %0, ptr %3, align 8, !tbaa !4
  %15 = zext i1 %1 to i8
  store i8 %15, ptr %4, align 1, !tbaa !37
  %16 = load i8, ptr %4, align 1, !tbaa !37, !range !39, !noundef !40
  %17 = trunc i8 %16 to i1
  br i1 %17, label %18, label %24

18:                                               ; preds = %2
  %19 = load ptr, ptr %3, align 8, !tbaa !4
  call void @llvm.memcpy.p0.p0.i64(ptr align 1 %6, ptr align 1 @_ZN4Luau7CodeGen3X64L3eaxE, i64 1, i1 false), !tbaa.struct !23
  %20 = getelementptr inbounds nuw %"struct.Luau::CodeGen::X64::RegisterX64", ptr %6, i32 0, i32 0
  %21 = load i8, ptr %20, align 1
  call void @_ZN4Luau7CodeGen3X6410OperandX64C2ENS1_11RegisterX64E(ptr noundef nonnull align 4 dereferenceable(8) %5, i8 %21)
  call void @_ZN4Luau7CodeGen3X6410OperandX64C2Ei(ptr noundef nonnull align 4 dereferenceable(8) %7, i32 noundef 1)
  %22 = load i64, ptr %5, align 4
  %23 = load i64, ptr %7, align 4
  call void @_ZN4Luau7CodeGen3X6418AssemblyBuilderX643movENS1_10OperandX64ES3_(ptr noundef nonnull align 8 dereferenceable(252) %19, i64 %22, i64 %23)
  br label %32

24:                                               ; preds = %2
  %25 = load ptr, ptr %3, align 8, !tbaa !4
  call void @llvm.memcpy.p0.p0.i64(ptr align 1 %9, ptr align 1 @_ZN4Luau7CodeGen3X64L3eaxE, i64 1, i1 false), !tbaa.struct !23
  %26 = getelementptr inbounds nuw %"struct.Luau::CodeGen::X64::RegisterX64", ptr %9, i32 0, i32 0
  %27 = load i8, ptr %26, align 1
  call void @_ZN4Luau7CodeGen3X6410OperandX64C2ENS1_11RegisterX64E(ptr noundef nonnull align 4 dereferenceable(8) %8, i8 %27)
  call void @llvm.memcpy.p0.p0.i64(ptr align 1 %11, ptr align 1 @_ZN4Luau7CodeGen3X64L3eaxE, i64 1, i1 false), !tbaa.struct !23
  %28 = getelementptr inbounds nuw %"struct.Luau::CodeGen::X64::RegisterX64", ptr %11, i32 0, i32 0
  %29 = load i8, ptr %28, align 1
  call void @_ZN4Luau7CodeGen3X6410OperandX64C2ENS1_11RegisterX64E(ptr noundef nonnull align 4 dereferenceable(8) %10, i8 %29)
  %30 = load i64, ptr %8, align 4
  %31 = load i64, ptr %10, align 4
  call void @_ZN4Luau7CodeGen3X6418AssemblyBuilderX644xor_ENS1_10OperandX64ES3_(ptr noundef nonnull align 8 dereferenceable(252) %25, i64 %30, i64 %31)
  br label %32

32:                                               ; preds = %24, %18
  %33 = load ptr, ptr %3, align 8, !tbaa !4
  call void @llvm.lifetime.start.p0(i64 8, ptr %13) #8
  call void @llvm.memcpy.p0.p0.i64(ptr align 1 %14, ptr align 1 @_ZN4Luau7CodeGen3X64L14rNativeContextE, i64 1, i1 false), !tbaa.struct !23
  %34 = getelementptr inbounds nuw %"struct.Luau::CodeGen::X64::RegisterX64", ptr %14, i32 0, i32 0
  %35 = load i8, ptr %34, align 1
  %36 = call i64 @_ZN4Luau7CodeGen3X64plENS1_11RegisterX64Ei(i8 %35, i32 noundef 8)
  store i64 %36, ptr %13, align 4
  %37 = call i64 @_ZNK4Luau7CodeGen3X6410OperandX64ixEOS2_(ptr noundef nonnull align 4 dereferenceable(8) @_ZN4Luau7CodeGen3X64L5qwordE, ptr noundef nonnull align 4 dereferenceable(8) %13)
  store i64 %37, ptr %12, align 4
  %38 = load i64, ptr %12, align 4
  call void @_ZN4Luau7CodeGen3X6418AssemblyBuilderX643jmpENS1_10OperandX64E(ptr noundef nonnull align 8 dereferenceable(252) %33, i64 %38)
  call void @llvm.lifetime.end.p0(i64 8, ptr %13) #8
  ret void
}