; Function Attrs: mustprogress uwtable
define dso_local void @_ZN4Luau7CodeGen3X648emitExitERNS1_18AssemblyBuilderX64Eb(ptr noundef nonnull align 8 dereferenceable(252) %0, i1 noundef zeroext %1) local_unnamed_addr #0 {
  br i1 %1, label %3, label %4

3:                                                ; preds = %2
  tail call void @_ZN4Luau7CodeGen3X6418AssemblyBuilderX643movENS1_10OperandX64ES3_(ptr noundef nonnull align 8 dereferenceable(252) %0, i64 268664832, i64 4571824130)
  br label %5

4:                                                ; preds = %2
  tail call void @_ZN4Luau7CodeGen3X6418AssemblyBuilderX644xor_ENS1_10OperandX64ES3_(ptr noundef nonnull align 8 dereferenceable(252) %0, i64 268664832, i64 268664832)
  br label %5

5:                                                ; preds = %4, %3
  tail call void @_ZN4Luau7CodeGen3X6418AssemblyBuilderX643jmpENS1_10OperandX64E(ptr noundef nonnull align 8 dereferenceable(252) %0, i64 34702393345)
  ret void
}